; Function Attrs: mustprogress nounwind uwtable
define internal void @_ZN9grpc_core12_GLOBAL__N_15RlsLb18ChildPolicyWrapper17ChildPolicyHelperD0Ev(ptr noundef nonnull align 8 dereferenceable(16) %this) unnamed_addr #11 align 2 personality ptr @__gxx_personality_v0 {
entry:
  store ptr getelementptr inbounds ({ [13 x ptr] }, ptr @_ZTVN9grpc_core12_GLOBAL__N_15RlsLb18ChildPolicyWrapper17ChildPolicyHelperE, i64 0, i32 0, i64 2), ptr %this, align 8
  %wrapper_.i = getelementptr inbounds i8, ptr %this, i64 8
  %0 = load ptr, ptr %wrapper_.i, align 8
  store ptr null, ptr %wrapper_.i, align 8
  %cmp.not.i.i = icmp eq ptr %0, null
  br i1 %cmp.not.i.i, label %_ZN9grpc_core12_GLOBAL__N_15RlsLb18ChildPolicyWrapper17ChildPolicyHelperD2Ev.exit, label %if.then.i.i

if.then.i.i:                                      ; preds = %entry
  %refs_.i.i.i = getelementptr inbounds i8, ptr %0, i64 8
  %1 = atomicrmw sub ptr %refs_.i.i.i, i64 1 acq_rel, align 8
  %cmp.not.i.i.i = icmp eq i64 %1, 1
  br i1 %cmp.not.i.i.i, label %delete.notnull.i.i.i, label %invoke.cont2.i

delete.notnull.i.i.i:                             ; preds = %if.then.i.i
  %vtable.i.i.i = load ptr, ptr %0, align 8
  %vfn.i.i.i = getelementptr inbounds i8, ptr %vtable.i.i.i, i64 16
  %2 = load ptr, ptr %vfn.i.i.i, align 8
  tail call void %2(ptr noundef nonnull align 8 dereferenceable(96) %0) #31
  br label %invoke.cont2.i

invoke.cont2.i:                                   ; preds = %delete.notnull.i.i.i, %if.then.i.i
  %wrapper_.val.pr.i = load ptr, ptr %wrapper_.i, align 8
  %cmp.not.i1.i = icmp eq ptr %wrapper_.val.pr.i, null
  br i1 %cmp.not.i1.i, label %_ZN9grpc_core12_GLOBAL__N_15RlsLb18ChildPolicyWrapper17ChildPolicyHelperD2Ev.exit, label %if.then.i2.i

if.then.i2.i:                                     ; preds = %invoke.cont2.i
  %refs_.i.i3.i = getelementptr inbounds i8, ptr %wrapper_.val.pr.i, i64 8
  %3 = atomicrmw sub ptr %refs_.i.i3.i, i64 1 acq_rel, align 8
  %cmp.not.i.i4.i = icmp eq i64 %3, 1
  br i1 %cmp.not.i.i4.i, label %delete.notnull.i.i5.i, label %_ZN9grpc_core12_GLOBAL__N_15RlsLb18ChildPolicyWrapper17ChildPolicyHelperD2Ev.exit

delete.notnull.i.i5.i:                            ; preds = %if.then.i2.i
  %vtable.i.i6.i = load ptr, ptr %wrapper_.val.pr.i, align 8
  %vfn.i.i7.i = getelementptr inbounds i8, ptr %vtable.i.i6.i, i64 16
  %4 = load ptr, ptr %vfn.i.i7.i, align 8
  tail call void %4(ptr noundef nonnull align 8 dereferenceable(96) %wrapper_.val.pr.i) #31
  br label %_ZN9grpc_core12_GLOBAL__N_15RlsLb18ChildPolicyWrapper17ChildPolicyHelperD2Ev.exit

_ZN9grpc_core12_GLOBAL__N_15RlsLb18ChildPolicyWrapper17ChildPolicyHelperD2Ev.exit: ; preds = %entry, %invoke.cont2.i, %if.then.i2.i, %delete.notnull.i.i5.i
  tail call void @_ZdlPv(ptr noundef nonnull %this) #33
  ret void
}